; Function Attrs: mustprogress uwtable
define dso_local void @_ZN4Luau7CodeGen3A6418AssemblyBuilderA647placeBMEPKcNS1_11RegisterA64ES5_jh(ptr noundef nonnull align 8 dereferenceable(176) %0, ptr noundef %1, i8 %2, i8 %3, i32 noundef %4, i8 noundef zeroext %5) local_unnamed_addr #0 align 2 {
  %7 = getelementptr inbounds nuw i8, ptr %0, i64 80
  %8 = load i8, ptr %7, align 8, !tbaa !14, !range !46, !noundef !47
  %9 = trunc nuw i8 %8 to i1
  br i1 %9, label %10, label %11

10:                                               ; preds = %6
  tail call void @_ZN4Luau7CodeGen3A6418AssemblyBuilderA643logEPKcNS1_11RegisterA64ES5_i(ptr noundef nonnull align 8 dereferenceable(176) %0, ptr noundef %1, i8 %2, i8 %3, i32 noundef %4)
  br label %11

11:                                               ; preds = %10, %6
  %12 = and i8 %2, 7
  %13 = icmp eq i8 %12, 2
  %14 = select i1 %13, i32 -2147483648, i32 0
  %15 = tail call noundef range(i32 0, 33) i32 @llvm.ctlz.i32(i32 %4, i1 false)
  %16 = tail call noundef range(i32 0, 33) i32 @llvm.cttz.i32(i32 %4, i1 false)
  %17 = add nuw nsw i32 %15, %16
  %18 = lshr i8 %2, 3
  %19 = zext nneg i8 %18 to i32
  %20 = lshr i8 %3, 3
  %21 = zext nneg i8 %20 to i32
  %22 = shl nuw nsw i32 %21, 5
  %23 = or disjoint i32 %22, %19
  %24 = shl nuw nsw i32 %17, 10
  %reass.sub = sub nsw i32 %23, %24
  %25 = add nsw i32 %reass.sub, 31744
  %.neg = mul nuw nsw i32 %16, 2031616
  %26 = and i32 %.neg, 2031616
  %27 = zext i8 %5 to i32
  %28 = shl nuw nsw i32 %27, 23
  %29 = or disjoint i32 %26, %14
  %30 = or disjoint i32 %29, %28
  %31 = or i32 %30, %25
  %32 = getelementptr inbounds nuw i8, ptr %0, i64 160
  %33 = load ptr, ptr %32, align 8, !tbaa !39
  %34 = getelementptr inbounds nuw i8, ptr %33, i64 4
  store ptr %34, ptr %32, align 8, !tbaa !39
  store i32 %31, ptr %33, align 4, !tbaa !48
  %35 = getelementptr inbounds nuw i8, ptr %0, i64 168
  %36 = load ptr, ptr %35, align 8, !tbaa !40
  %37 = icmp eq ptr %36, %34
  br i1 %37, label %38, label %_ZN4Luau7CodeGen3A6418AssemblyBuilderA646commitEv.exit

38:                                               ; preds = %11
  tail call void @_ZN4Luau7CodeGen3A6418AssemblyBuilderA646extendEv(ptr noundef nonnull align 8 dereferenceable(176) %0)
  br label %_ZN4Luau7CodeGen3A6418AssemblyBuilderA646commitEv.exit

_ZN4Luau7CodeGen3A6418AssemblyBuilderA646commitEv.exit: ; preds = %11, %38
  ret void
}